target datalayout = "e-m:e-p270:32:32-p271:32:32-p272:64:64-i64:64-i128:128-f80:128-n8:16:32:64-S128"
target triple = "x86_64-pc-linux-gnu"

%struct._YR_COMPILER = type { i32, i32, i32, i32, i32, [1 x %struct.__jmp_buf_tag], ptr, ptr, ptr, ptr, ptr, ptr, ptr, ptr, ptr, ptr, ptr, ptr, ptr, ptr, i32, i32, [4 x ptr], [4 x ptr], i32, i32, i32, [16 x ptr], i32, [16 x ptr], i32, [256 x i8], [1024 x i8], ptr, i16, [1024 x i8], ptr, %struct.rq, %struct.cs, ptr, i32 }
%struct.__jmp_buf_tag = type { [8 x i64], i32, %struct.__sigset_t }
%struct.__sigset_t = type { [16 x i64] }
%struct.rq = type { ptr, ptr }
%struct.cs = type { ptr, ptr }

; Function Attrs: nounwind uwtable
define i32 @yr_parser_lookup_loop_variable(ptr noundef %0, ptr noundef %1) #0 {
  %3 = alloca i32, align 4
  %4 = alloca ptr, align 8
  %5 = alloca ptr, align 8
  %6 = alloca ptr, align 8
  %7 = alloca i32, align 4
  %8 = alloca i32, align 4
  store ptr %0, ptr %4, align 8, !tbaa !3
  store ptr %1, ptr %5, align 8, !tbaa !27
  call void @llvm.lifetime.start.p0(i64 8, ptr %6) #5
  %9 = load ptr, ptr %4, align 8, !tbaa !3
  %10 = call ptr @yara_yyget_extra(ptr noundef %9)
  store ptr %10, ptr %6, align 8, !tbaa !28
  call void @llvm.lifetime.start.p0(i64 4, ptr %7) #5
  store i32 0, ptr %7, align 4, !tbaa !26
  br label %11

11:                                               ; preds = %38, %2
  %12 = load i32, ptr %7, align 4, !tbaa !26
  %13 = load ptr, ptr %6, align 8, !tbaa !28
  %14 = getelementptr inbounds nuw %struct._YR_COMPILER, ptr %13, i32 0, i32 24
  %15 = load i32, ptr %14, align 8, !tbaa !43
  %16 = icmp slt i32 %12, %15
  br i1 %16, label %17, label %41

17:                                               ; preds = %11
  %18 = load ptr, ptr %6, align 8, !tbaa !28
  %19 = getelementptr inbounds nuw %struct._YR_COMPILER, ptr %18, i32 0, i32 23
  %20 = load i32, ptr %7, align 4, !tbaa !26
  %21 = sext i32 %20 to i64
  %22 = getelementptr inbounds [4 x ptr], ptr %19, i64 0, i64 %21
  %23 = load ptr, ptr %22, align 8, !tbaa !27
  %24 = icmp ne ptr %23, null
  br i1 %24, label %25, label %37

25:                                               ; preds = %17
  %26 = load ptr, ptr %5, align 8, !tbaa !27
  %27 = load ptr, ptr %6, align 8, !tbaa !28
  %28 = getelementptr inbounds nuw %struct._YR_COMPILER, ptr %27, i32 0, i32 23
  %29 = load i32, ptr %7, align 4, !tbaa !26
  %30 = sext i32 %29 to i64
  %31 = getelementptr inbounds [4 x ptr], ptr %28, i64 0, i64 %30
  %32 = load ptr, ptr %31, align 8, !tbaa !27
  %33 = call i32 @strcmp(ptr noundef %26, ptr noundef %32) #6
  %34 = icmp eq i32 %33, 0
  br i1 %34, label %35, label %37

35:                                               ; preds = %25
  %36 = load i32, ptr %7, align 4, !tbaa !26
  store i32 %36, ptr %3, align 4
  store i32 1, ptr %8, align 4
  br label %42

37:                                               ; preds = %25, %17
  br label %38

38:                                               ; preds = %37
  %39 = load i32, ptr %7, align 4, !tbaa !26
  %40 = add nsw i32 %39, 1
  store i32 %40, ptr %7, align 4, !tbaa !26
  br label %11

41:                                               ; preds = %11
  store i32 -1, ptr %3, align 4
  store i32 1, ptr %8, align 4
  br label %42

42:                                               ; preds = %41, %35
  call void @llvm.lifetime.end.p0(i64 4, ptr %7) #5
  call void @llvm.lifetime.end.p0(i64 8, ptr %6) #5
  %43 = load i32, ptr %3, align 4
  ret i32 %43
}