; Function Attrs: nounwind uwtable
define range(i32 -2147483648, 2147483647) i32 @yr_parser_lookup_loop_variable(ptr noundef %0, ptr noundef readonly captures(none) %1) local_unnamed_addr #0 {
  %3 = tail call ptr @yara_yyget_extra(ptr noundef %0) #6
  %4 = getelementptr inbounds nuw i8, ptr %3, i64 408
  %5 = load i32, ptr %4, align 8, !tbaa !34
  %6 = icmp sgt i32 %5, 0
  br i1 %6, label %.lr.ph, label %._crit_edge

.lr.ph:                                           ; preds = %2
  %7 = getelementptr inbounds nuw i8, ptr %3, i64 376
  %wide.trip.count = zext nneg i32 %5 to i64
  br label %8

8:                                                ; preds = %.lr.ph, %14
  %indvars.iv = phi i64 [ 0, %.lr.ph ], [ %indvars.iv.next, %14 ]
  %9 = getelementptr inbounds nuw [4 x ptr], ptr %7, i64 0, i64 %indvars.iv
  %10 = load ptr, ptr %9, align 8, !tbaa !35
  %.not = icmp eq ptr %10, null
  br i1 %.not, label %14, label %11

11:                                               ; preds = %8
  %12 = tail call i32 @strcmp(ptr noundef nonnull dereferenceable(1) %1, ptr noundef nonnull dereferenceable(1) %10) #7
  %13 = icmp eq i32 %12, 0
  br i1 %13, label %._crit_edge.loopexit.split.loop.exit16, label %14

14:                                               ; preds = %8, %11
  %indvars.iv.next = add nuw nsw i64 %indvars.iv, 1
  %exitcond.not = icmp eq i64 %indvars.iv.next, %wide.trip.count
  br i1 %exitcond.not, label %._crit_edge, label %8

._crit_edge.loopexit.split.loop.exit16:           ; preds = %11
  %15 = trunc nuw nsw i64 %indvars.iv to i32
  br label %._crit_edge

._crit_edge:                                      ; preds = %14, %._crit_edge.loopexit.split.loop.exit16, %2
  %.010 = phi i32 [ -1, %2 ], [ %15, %._crit_edge.loopexit.split.loop.exit16 ], [ -1, %14 ]
  ret i32 %.010
}